target datalayout = "e-m:e-p270:32:32-p271:32:32-p272:64:64-i64:64-i128:128-f80:128-n8:16:32:64-S128"
target triple = "x86_64-pc-linux-gnu"

%struct.rb_data_type_struct = type { ptr, %struct.anon.4, ptr, ptr, i64 }
%struct.anon.4 = type { ptr, ptr, ptr, ptr, [1 x ptr] }
%struct.sockaddr = type { i16, [14 x i8] }
%struct.sockaddr_un = type { i16, [108 x i8] }
%struct.rb_addrinfo_t = type { i64, i64, i32, i32, i32, i32, %union.union_sockaddr }
%union.union_sockaddr = type { %struct.sockaddr_storage, [1920 x i8] }
%struct.sockaddr_storage = type { i16, [118 x i8], i64 }

@rb_eSocket = external global i64, align 8
@.str.8 = private unnamed_addr constant [12 x i8] c"getnameinfo\00", align 1
@addrinfo_type = internal constant %struct.rb_data_type_struct { ptr @.str.102, %struct.anon.4 { ptr @addrinfo_mark, ptr inttoptr (i64 -1 to ptr), ptr @addrinfo_memsize, ptr null, [1 x ptr] zeroinitializer }, ptr null, ptr null, i64 0 }, align 8
@rb_eTypeError = external global i64, align 8
@.str.101 = private unnamed_addr constant [29 x i8] c"uninitialized socket address\00", align 1
@.str.128 = private unnamed_addr constant [28 x i8] c"unknown protocol family: %d\00", align 1
@.str.129 = private unnamed_addr constant [21 x i8] c"unknown socktype: %d\00", align 1
@.str.130 = private unnamed_addr constant [24 x i8] c"unknown IP protocol: %d\00", align 1
@.str.131 = private unnamed_addr constant [21 x i8] c"unknown protocol: %d\00", align 1
@.str.132 = private unnamed_addr constant [27 x i8] c"unknown address family: %d\00", align 1

; Function Attrs: nounwind sspstrong uwtable
define internal i64 @unixsocket_len(ptr noundef %0, i32 noundef %1) #0 {
  %3 = alloca ptr, align 8
  %4 = alloca i32, align 4
  %5 = alloca ptr, align 8
  %6 = alloca ptr, align 8
  store ptr %0, ptr %3, align 8, !tbaa !104
  store i32 %1, ptr %4, align 4, !tbaa !27
  call void @llvm.lifetime.start.p0(i64 8, ptr %5) #24
  %7 = load ptr, ptr %3, align 8, !tbaa !104
  %8 = getelementptr inbounds nuw %struct.sockaddr_un, ptr %7, i32 0, i32 1
  %9 = getelementptr inbounds [108 x i8], ptr %8, i64 0, i64 0
  store ptr %9, ptr %5, align 8, !tbaa !30
  call void @llvm.lifetime.start.p0(i64 8, ptr %6) #24
  %10 = load ptr, ptr %3, align 8, !tbaa !104
  %11 = load i32, ptr %4, align 4, !tbaa !27
  %12 = zext i32 %11 to i64
  %13 = getelementptr inbounds nuw i8, ptr %10, i64 %12
  store ptr %13, ptr %6, align 8, !tbaa !30
  br label %14

14:                                               ; preds = %26, %2
  %15 = load ptr, ptr %5, align 8, !tbaa !30
  %16 = load ptr, ptr %6, align 8, !tbaa !30
  %17 = icmp ult ptr %15, %16
  br i1 %17, label %18, label %24

18:                                               ; preds = %14
  %19 = load ptr, ptr %6, align 8, !tbaa !30
  %20 = getelementptr inbounds i8, ptr %19, i64 -1
  %21 = load i8, ptr %20, align 1, !tbaa !51
  %22 = sext i8 %21 to i32
  %23 = icmp eq i32 %22, 0
  br label %24

24:                                               ; preds = %18, %14
  %25 = phi i1 [ false, %14 ], [ %23, %18 ]
  br i1 %25, label %26, label %29

26:                                               ; preds = %24
  %27 = load ptr, ptr %6, align 8, !tbaa !30
  %28 = getelementptr inbounds i8, ptr %27, i32 -1
  store ptr %28, ptr %6, align 8, !tbaa !30
  br label %14, !llvm.loop !106

29:                                               ; preds = %24
  %30 = load ptr, ptr %6, align 8, !tbaa !30
  %31 = load ptr, ptr %5, align 8, !tbaa !30
  %32 = ptrtoint ptr %30 to i64
  %33 = ptrtoint ptr %31 to i64
  %34 = sub i64 %32, %33
  call void @llvm.lifetime.end.p0(i64 8, ptr %6) #24
  call void @llvm.lifetime.end.p0(i64 8, ptr %5) #24
  ret i64 %34
}

; Function Attrs: nounwind sspstrong uwtable
define internal i32 @get_afamily(ptr noundef %0, i32 noundef %1) #0 {
  %3 = alloca i32, align 4
  %4 = alloca ptr, align 8
  %5 = alloca i32, align 4
  store ptr %0, ptr %4, align 8, !tbaa !29
  store i32 %1, ptr %5, align 4, !tbaa !27
  %6 = load ptr, ptr %4, align 8, !tbaa !29
  %7 = getelementptr inbounds nuw %struct.sockaddr, ptr %6, i32 0, i32 0
  %8 = getelementptr inbounds nuw i8, ptr %7, i64 2
  %9 = load ptr, ptr %4, align 8, !tbaa !29
  %10 = ptrtoint ptr %8 to i64
  %11 = ptrtoint ptr %9 to i64
  %12 = sub i64 %10, %11
  %13 = trunc i64 %12 to i32
  %14 = load i32, ptr %5, align 4, !tbaa !27
  %15 = icmp ule i32 %13, %14
  br i1 %15, label %16, label %21

16:                                               ; preds = %2
  %17 = load ptr, ptr %4, align 8, !tbaa !29
  %18 = getelementptr inbounds nuw %struct.sockaddr, ptr %17, i32 0, i32 0
  %19 = load i16, ptr %18, align 2, !tbaa !96
  %20 = zext i16 %19 to i32
  store i32 %20, ptr %3, align 4
  br label %22

21:                                               ; preds = %2
  store i32 0, ptr %3, align 4
  br label %22

22:                                               ; preds = %21, %16
  %23 = load i32, ptr %3, align 4
  ret i32 %23
}

; Function Attrs: inlinehint nounwind sspstrong uwtable
define internal ptr @check_addrinfo(i64 noundef %0) #5 {
  %2 = alloca i64, align 8
  store i64 %0, ptr %2, align 8, !tbaa !31
  %3 = load i64, ptr %2, align 8, !tbaa !31
  %4 = call ptr @rb_check_typeddata(i64 noundef %3, ptr noundef @addrinfo_type)
  ret ptr %4
}

; Function Attrs: nounwind sspstrong uwtable
define internal i64 @rai_unixsocket_len(ptr noundef %0) #0 {
  %2 = alloca ptr, align 8
  store ptr %0, ptr %2, align 8, !tbaa !26
  %3 = load ptr, ptr %2, align 8, !tbaa !26
  %4 = getelementptr inbounds nuw %struct.rb_addrinfo_t, ptr %3, i32 0, i32 6
  %5 = load ptr, ptr %2, align 8, !tbaa !26
  %6 = getelementptr inbounds nuw %struct.rb_addrinfo_t, ptr %5, i32 0, i32 5
  %7 = load i32, ptr %6, align 4, !tbaa !126
  %8 = call i64 @unixsocket_len(ptr noundef %4, i32 noundef %7)
  ret i64 %8
}

; Function Attrs: nounwind sspstrong uwtable
define internal i32 @ai_get_afamily(ptr noundef %0) #0 {
  %2 = alloca ptr, align 8
  store ptr %0, ptr %2, align 8, !tbaa !26
  %3 = load ptr, ptr %2, align 8, !tbaa !26
  %4 = getelementptr inbounds nuw %struct.rb_addrinfo_t, ptr %3, i32 0, i32 6
  %5 = load ptr, ptr %2, align 8, !tbaa !26
  %6 = getelementptr inbounds nuw %struct.rb_addrinfo_t, ptr %5, i32 0, i32 5
  %7 = load i32, ptr %6, align 4, !tbaa !126
  %8 = call i32 @get_afamily(ptr noundef %4, i32 noundef %7)
  ret i32 %8
}

; Function Attrs: nounwind sspstrong uwtable
define internal ptr @get_addrinfo(i64 noundef %0) #0 {
  %2 = alloca i64, align 8
  %3 = alloca ptr, align 8
  store i64 %0, ptr %2, align 8, !tbaa !31
  call void @llvm.lifetime.start.p0(i64 8, ptr %3) #24
  %4 = load i64, ptr %2, align 8, !tbaa !31
  %5 = call ptr @check_addrinfo(i64 noundef %4)
  store ptr %5, ptr %3, align 8, !tbaa !26
  %6 = load ptr, ptr %3, align 8, !tbaa !26
  %7 = icmp ne ptr %6, null
  br i1 %7, label %10, label %8

8:                                                ; preds = %1
  %9 = load i64, ptr @rb_eTypeError, align 8, !tbaa !31
  call void (i64, ptr, ...) @rb_raise(i64 noundef %9, ptr noundef @.str.101) #27
  unreachable

10:                                               ; preds = %1
  %11 = load ptr, ptr %3, align 8, !tbaa !26
  call void @llvm.lifetime.end.p0(i64 8, ptr %3) #24
  ret ptr %11
}

; Function Attrs: nounwind sspstrong uwtable
define internal i64 @addrinfo_mdump(i64 noundef %0) #0 {
  %2 = alloca i64, align 8
  %3 = alloca ptr, align 8
  %4 = alloca i64, align 8
  %5 = alloca i64, align 8
  %6 = alloca i64, align 8
  %7 = alloca i64, align 8
  %8 = alloca i64, align 8
  %9 = alloca i64, align 8
  %10 = alloca i64, align 8
  %11 = alloca i32, align 4
  %12 = alloca i64, align 8
  %13 = alloca [1025 x i8], align 16
  %14 = alloca [32 x i8], align 16
  %15 = alloca i32, align 4
  store i64 %0, ptr %2, align 8, !tbaa !31
  call void @llvm.lifetime.start.p0(i64 8, ptr %3) #24
  %16 = load i64, ptr %2, align 8, !tbaa !31
  %17 = call ptr @get_addrinfo(i64 noundef %16)
  store ptr %17, ptr %3, align 8, !tbaa !26
  call void @llvm.lifetime.start.p0(i64 8, ptr %4) #24
  call void @llvm.lifetime.start.p0(i64 8, ptr %5) #24
  call void @llvm.lifetime.start.p0(i64 8, ptr %6) #24
  call void @llvm.lifetime.start.p0(i64 8, ptr %7) #24
  call void @llvm.lifetime.start.p0(i64 8, ptr %8) #24
  call void @llvm.lifetime.start.p0(i64 8, ptr %9) #24
  call void @llvm.lifetime.start.p0(i64 8, ptr %10) #24
  call void @llvm.lifetime.start.p0(i64 4, ptr %11) #24
  %18 = load ptr, ptr %3, align 8, !tbaa !26
  %19 = call i32 @ai_get_afamily(ptr noundef %18)
  store i32 %19, ptr %11, align 4, !tbaa !27
  call void @llvm.lifetime.start.p0(i64 8, ptr %12) #24
  %20 = load ptr, ptr %3, align 8, !tbaa !26
  %21 = getelementptr inbounds nuw %struct.rb_addrinfo_t, ptr %20, i32 0, i32 2
  %22 = load i32, ptr %21, align 8, !tbaa !127
  %23 = call i64 @rsock_intern_protocol_family(i32 noundef %22)
  store i64 %23, ptr %12, align 8, !tbaa !31
  %24 = load i64, ptr %12, align 8, !tbaa !31
  %25 = icmp eq i64 %24, 0
  br i1 %25, label %26, label %31

26:                                               ; preds = %1
  %27 = load i64, ptr @rb_eSocket, align 8, !tbaa !31
  %28 = load ptr, ptr %3, align 8, !tbaa !26
  %29 = getelementptr inbounds nuw %struct.rb_addrinfo_t, ptr %28, i32 0, i32 2
  %30 = load i32, ptr %29, align 8, !tbaa !127
  call void (i64, ptr, ...) @rb_raise(i64 noundef %27, ptr noundef @.str.128, i32 noundef %30) #27
  unreachable

31:                                               ; preds = %1
  %32 = load i64, ptr %12, align 8, !tbaa !31
  %33 = call i64 @rb_id2str(i64 noundef %32)
  store i64 %33, ptr %6, align 8, !tbaa !31
  %34 = load ptr, ptr %3, align 8, !tbaa !26
  %35 = getelementptr inbounds nuw %struct.rb_addrinfo_t, ptr %34, i32 0, i32 3
  %36 = load i32, ptr %35, align 4, !tbaa !128
  %37 = icmp eq i32 %36, 0
  br i1 %37, label %38, label %39

38:                                               ; preds = %31
  store i64 1, ptr %7, align 8, !tbaa !31
  br label %54

39:                                               ; preds = %31
  %40 = load ptr, ptr %3, align 8, !tbaa !26
  %41 = getelementptr inbounds nuw %struct.rb_addrinfo_t, ptr %40, i32 0, i32 3
  %42 = load i32, ptr %41, align 4, !tbaa !128
  %43 = call i64 @rsock_intern_socktype(i32 noundef %42)
  store i64 %43, ptr %12, align 8, !tbaa !31
  %44 = load i64, ptr %12, align 8, !tbaa !31
  %45 = icmp eq i64 %44, 0
  br i1 %45, label %46, label %51

46:                                               ; preds = %39
  %47 = load i64, ptr @rb_eSocket, align 8, !tbaa !31
  %48 = load ptr, ptr %3, align 8, !tbaa !26
  %49 = getelementptr inbounds nuw %struct.rb_addrinfo_t, ptr %48, i32 0, i32 3
  %50 = load i32, ptr %49, align 4, !tbaa !128
  call void (i64, ptr, ...) @rb_raise(i64 noundef %47, ptr noundef @.str.129, i32 noundef %50) #27
  unreachable

51:                                               ; preds = %39
  %52 = load i64, ptr %12, align 8, !tbaa !31
  %53 = call i64 @rb_id2str(i64 noundef %52)
  store i64 %53, ptr %7, align 8, !tbaa !31
  br label %54

54:                                               ; preds = %51, %38
  %55 = load ptr, ptr %3, align 8, !tbaa !26
  %56 = getelementptr inbounds nuw %struct.rb_addrinfo_t, ptr %55, i32 0, i32 4
  %57 = load i32, ptr %56, align 8, !tbaa !129
  %58 = icmp eq i32 %57, 0
  br i1 %58, label %59, label %60

59:                                               ; preds = %54
  store i64 1, ptr %8, align 8, !tbaa !31
  br label %87

60:                                               ; preds = %54
  %61 = load i32, ptr %11, align 4, !tbaa !27
  %62 = icmp eq i32 %61, 2
  br i1 %62, label %66, label %63

63:                                               ; preds = %60
  %64 = load i32, ptr %11, align 4, !tbaa !27
  %65 = icmp eq i32 %64, 10
  br i1 %65, label %66, label %81

66:                                               ; preds = %63, %60
  %67 = load ptr, ptr %3, align 8, !tbaa !26
  %68 = getelementptr inbounds nuw %struct.rb_addrinfo_t, ptr %67, i32 0, i32 4
  %69 = load i32, ptr %68, align 8, !tbaa !129
  %70 = call i64 @rsock_intern_ipproto(i32 noundef %69)
  store i64 %70, ptr %12, align 8, !tbaa !31
  %71 = load i64, ptr %12, align 8, !tbaa !31
  %72 = icmp eq i64 %71, 0
  br i1 %72, label %73, label %78

73:                                               ; preds = %66
  %74 = load i64, ptr @rb_eSocket, align 8, !tbaa !31
  %75 = load ptr, ptr %3, align 8, !tbaa !26
  %76 = getelementptr inbounds nuw %struct.rb_addrinfo_t, ptr %75, i32 0, i32 4
  %77 = load i32, ptr %76, align 8, !tbaa !129
  call void (i64, ptr, ...) @rb_raise(i64 noundef %74, ptr noundef @.str.130, i32 noundef %77) #27
  unreachable

78:                                               ; preds = %66
  %79 = load i64, ptr %12, align 8, !tbaa !31
  %80 = call i64 @rb_id2str(i64 noundef %79)
  store i64 %80, ptr %8, align 8, !tbaa !31
  br label %86

81:                                               ; preds = %63
  %82 = load i64, ptr @rb_eSocket, align 8, !tbaa !31
  %83 = load ptr, ptr %3, align 8, !tbaa !26
  %84 = getelementptr inbounds nuw %struct.rb_addrinfo_t, ptr %83, i32 0, i32 4
  %85 = load i32, ptr %84, align 8, !tbaa !129
  call void (i64, ptr, ...) @rb_raise(i64 noundef %82, ptr noundef @.str.131, i32 noundef %85) #27
  unreachable

86:                                               ; preds = %78
  br label %87

87:                                               ; preds = %86, %59
  %88 = load ptr, ptr %3, align 8, !tbaa !26
  %89 = getelementptr inbounds nuw %struct.rb_addrinfo_t, ptr %88, i32 0, i32 1
  %90 = load i64, ptr %89, align 8, !tbaa !125
  store i64 %90, ptr %9, align 8, !tbaa !31
  %91 = load ptr, ptr %3, align 8, !tbaa !26
  %92 = getelementptr inbounds nuw %struct.rb_addrinfo_t, ptr %91, i32 0, i32 0
  %93 = load i64, ptr %92, align 8, !tbaa !123
  store i64 %93, ptr %10, align 8, !tbaa !31
  %94 = load i32, ptr %11, align 4, !tbaa !27
  %95 = call i64 @rsock_intern_family(i32 noundef %94)
  store i64 %95, ptr %12, align 8, !tbaa !31
  %96 = load i64, ptr %12, align 8, !tbaa !31
  %97 = icmp eq i64 %96, 0
  br i1 %97, label %98, label %101

98:                                               ; preds = %87
  %99 = load i64, ptr @rb_eSocket, align 8, !tbaa !31
  %100 = load i32, ptr %11, align 4, !tbaa !27
  call void (i64, ptr, ...) @rb_raise(i64 noundef %99, ptr noundef @.str.132, i32 noundef %100) #27
  unreachable

101:                                              ; preds = %87
  %102 = load i64, ptr %12, align 8, !tbaa !31
  %103 = call i64 @rb_id2str(i64 noundef %102)
  store i64 %103, ptr %5, align 8, !tbaa !31
  %104 = load i32, ptr %11, align 4, !tbaa !27
  switch i32 %104, label %117 [
    i32 1, label %105
  ]

105:                                              ; preds = %101
  br i1 false, label %106, label %107

106:                                              ; preds = %105
  br label %107

107:                                              ; preds = %106, %105
  %108 = phi i1 [ false, %105 ], [ false, %106 ]
  %109 = select i1 %108, ptr @rb_str_new_static, ptr @rb_str_new
  %110 = load ptr, ptr %3, align 8, !tbaa !26
  %111 = getelementptr inbounds nuw %struct.rb_addrinfo_t, ptr %110, i32 0, i32 6
  %112 = getelementptr inbounds nuw %struct.sockaddr_un, ptr %111, i32 0, i32 1
  %113 = getelementptr inbounds [108 x i8], ptr %112, i64 0, i64 0
  %114 = load ptr, ptr %3, align 8, !tbaa !26
  %115 = call i64 @rai_unixsocket_len(ptr noundef %114)
  %116 = call i64 %109(ptr noundef %113, i64 noundef %115)
  store i64 %116, ptr %4, align 8, !tbaa !31
  br label %136

117:                                              ; preds = %101
  call void @llvm.lifetime.start.p0(i64 1025, ptr %13) #24
  call void @llvm.lifetime.start.p0(i64 32, ptr %14) #24
  call void @llvm.lifetime.start.p0(i64 4, ptr %15) #24
  %118 = load ptr, ptr %3, align 8, !tbaa !26
  %119 = getelementptr inbounds nuw %struct.rb_addrinfo_t, ptr %118, i32 0, i32 6
  %120 = load ptr, ptr %3, align 8, !tbaa !26
  %121 = getelementptr inbounds nuw %struct.rb_addrinfo_t, ptr %120, i32 0, i32 5
  %122 = load i32, ptr %121, align 4, !tbaa !126
  %123 = getelementptr inbounds [1025 x i8], ptr %13, i64 0, i64 0
  %124 = getelementptr inbounds [32 x i8], ptr %14, i64 0, i64 0
  %125 = call i32 @rb_getnameinfo(ptr noundef %119, i32 noundef %122, ptr noundef %123, i64 noundef 1025, ptr noundef %124, i64 noundef 32, i32 noundef 3)
  store i32 %125, ptr %15, align 4, !tbaa !27
  %126 = load i32, ptr %15, align 4, !tbaa !27
  %127 = icmp ne i32 %126, 0
  br i1 %127, label %128, label %130

128:                                              ; preds = %117
  %129 = load i32, ptr %15, align 4, !tbaa !27
  call void @rsock_raise_resolution_error(ptr noundef @.str.8, i32 noundef %129) #27
  unreachable

130:                                              ; preds = %117
  %131 = getelementptr inbounds [1025 x i8], ptr %13, i64 0, i64 0
  %132 = call i64 @rb_str_new_cstr(ptr noundef %131)
  %133 = getelementptr inbounds [32 x i8], ptr %14, i64 0, i64 0
  %134 = call i64 @rb_str_new_cstr(ptr noundef %133)
  %135 = call i64 @rb_assoc_new(i64 noundef %132, i64 noundef %134)
  store i64 %135, ptr %4, align 8, !tbaa !31
  call void @llvm.lifetime.end.p0(i64 4, ptr %15) #24
  call void @llvm.lifetime.end.p0(i64 32, ptr %14) #24
  call void @llvm.lifetime.end.p0(i64 1025, ptr %13) #24
  br label %136

136:                                              ; preds = %130, %107
  %137 = load i64, ptr %5, align 8, !tbaa !31
  %138 = load i64, ptr %4, align 8, !tbaa !31
  %139 = load i64, ptr %6, align 8, !tbaa !31
  %140 = load i64, ptr %7, align 8, !tbaa !31
  %141 = load i64, ptr %8, align 8, !tbaa !31
  %142 = load i64, ptr %9, align 8, !tbaa !31
  %143 = load i64, ptr %10, align 8, !tbaa !31
  %144 = call i64 (i64, ...) @rb_ary_new_from_args(i64 noundef 7, i64 noundef %137, i64 noundef %138, i64 noundef %139, i64 noundef %140, i64 noundef %141, i64 noundef %142, i64 noundef %143)
  call void @llvm.lifetime.end.p0(i64 8, ptr %12) #24
  call void @llvm.lifetime.end.p0(i64 4, ptr %11) #24
  call void @llvm.lifetime.end.p0(i64 8, ptr %10) #24
  call void @llvm.lifetime.end.p0(i64 8, ptr %9) #24
  call void @llvm.lifetime.end.p0(i64 8, ptr %8) #24
  call void @llvm.lifetime.end.p0(i64 8, ptr %7) #24
  call void @llvm.lifetime.end.p0(i64 8, ptr %6) #24
  call void @llvm.lifetime.end.p0(i64 8, ptr %5) #24
  call void @llvm.lifetime.end.p0(i64 8, ptr %4) #24
  call void @llvm.lifetime.end.p0(i64 8, ptr %3) #24
  ret i64 %144
}