; Function Attrs: nounwind sspstrong uwtable
define internal i64 @addrinfo_mdump(i64 noundef %0) #0 {
  %2 = alloca [1025 x i8], align 16
  %3 = alloca [32 x i8], align 16
  %4 = tail call ptr @rb_check_typeddata(i64 noundef %0, ptr noundef nonnull @addrinfo_type) #21
  %.not.i = icmp eq ptr %4, null
  br i1 %.not.i, label %5, label %get_addrinfo.exit

5:                                                ; preds = %1
  %6 = load i64, ptr @rb_eTypeError, align 8, !tbaa !35
  tail call void (i64, ptr, ...) @rb_raise(i64 noundef %6, ptr noundef nonnull @.str.101) #23
  unreachable

get_addrinfo.exit:                                ; preds = %1
  %7 = getelementptr inbounds nuw i8, ptr %4, i64 28
  %8 = load i32, ptr %7, align 4, !tbaa !118
  %9 = icmp ugt i32 %8, 1
  br i1 %9, label %10, label %ai_get_afamily.exit

10:                                               ; preds = %get_addrinfo.exit
  %11 = getelementptr inbounds nuw i8, ptr %4, i64 32
  %12 = load i16, ptr %11, align 2, !tbaa !91
  %13 = zext i16 %12 to i32
  br label %ai_get_afamily.exit

ai_get_afamily.exit:                              ; preds = %get_addrinfo.exit, %10
  %.0.i.i = phi i32 [ %13, %10 ], [ 0, %get_addrinfo.exit ]
  %14 = getelementptr inbounds nuw i8, ptr %4, i64 16
  %15 = load i32, ptr %14, align 8, !tbaa !119
  %16 = tail call i64 @rsock_intern_protocol_family(i32 noundef %15) #21
  %17 = icmp eq i64 %16, 0
  br i1 %17, label %18, label %21

18:                                               ; preds = %ai_get_afamily.exit
  %19 = load i64, ptr @rb_eSocket, align 8, !tbaa !35
  %20 = load i32, ptr %14, align 8, !tbaa !119
  tail call void (i64, ptr, ...) @rb_raise(i64 noundef %19, ptr noundef nonnull @.str.128, i32 noundef %20) #23
  unreachable

21:                                               ; preds = %ai_get_afamily.exit
  %22 = tail call i64 @rb_id2str(i64 noundef %16) #21
  %23 = getelementptr inbounds nuw i8, ptr %4, i64 20
  %24 = load i32, ptr %23, align 4, !tbaa !120
  %25 = icmp eq i32 %24, 0
  br i1 %25, label %34, label %26

26:                                               ; preds = %21
  %27 = tail call i64 @rsock_intern_socktype(i32 noundef %24) #21
  %28 = icmp eq i64 %27, 0
  br i1 %28, label %29, label %32

29:                                               ; preds = %26
  %30 = load i64, ptr @rb_eSocket, align 8, !tbaa !35
  %31 = load i32, ptr %23, align 4, !tbaa !120
  tail call void (i64, ptr, ...) @rb_raise(i64 noundef %30, ptr noundef nonnull @.str.129, i32 noundef %31) #23
  unreachable

32:                                               ; preds = %26
  %33 = tail call i64 @rb_id2str(i64 noundef %27) #21
  br label %34

34:                                               ; preds = %21, %32
  %.039 = phi i64 [ %33, %32 ], [ 1, %21 ]
  %35 = getelementptr inbounds nuw i8, ptr %4, i64 24
  %36 = load i32, ptr %35, align 8, !tbaa !121
  %37 = icmp eq i32 %36, 0
  br i1 %37, label %50, label %38

38:                                               ; preds = %34
  %39 = and i32 %.0.i.i, 65527
  %or.cond = icmp eq i32 %39, 2
  br i1 %or.cond, label %40, label %48

40:                                               ; preds = %38
  %41 = tail call i64 @rsock_intern_ipproto(i32 noundef %36) #21
  %42 = icmp eq i64 %41, 0
  br i1 %42, label %43, label %46

43:                                               ; preds = %40
  %44 = load i64, ptr @rb_eSocket, align 8, !tbaa !35
  %45 = load i32, ptr %35, align 8, !tbaa !121
  tail call void (i64, ptr, ...) @rb_raise(i64 noundef %44, ptr noundef nonnull @.str.130, i32 noundef %45) #23
  unreachable

46:                                               ; preds = %40
  %47 = tail call i64 @rb_id2str(i64 noundef %41) #21
  br label %50

48:                                               ; preds = %38
  %49 = load i64, ptr @rb_eSocket, align 8, !tbaa !35
  tail call void (i64, ptr, ...) @rb_raise(i64 noundef %49, ptr noundef nonnull @.str.131, i32 noundef %36) #23
  unreachable

50:                                               ; preds = %34, %46
  %.040 = phi i64 [ %47, %46 ], [ 1, %34 ]
  %51 = getelementptr inbounds nuw i8, ptr %4, i64 8
  %52 = load i64, ptr %51, align 8, !tbaa !111
  %53 = load i64, ptr %4, align 8, !tbaa !109
  %54 = tail call i64 @rsock_intern_family(i32 noundef %.0.i.i) #21
  %55 = icmp eq i64 %54, 0
  br i1 %55, label %56, label %58

56:                                               ; preds = %50
  %57 = load i64, ptr @rb_eSocket, align 8, !tbaa !35
  tail call void (i64, ptr, ...) @rb_raise(i64 noundef %57, ptr noundef nonnull @.str.132, i32 noundef %.0.i.i) #23
  unreachable

58:                                               ; preds = %50
  %59 = tail call i64 @rb_id2str(i64 noundef %54) #21
  %cond = icmp eq i32 %.0.i.i, 1
  br i1 %cond, label %60, label %72

60:                                               ; preds = %58
  %61 = getelementptr inbounds nuw i8, ptr %4, i64 34
  %62 = getelementptr inbounds nuw i8, ptr %4, i64 32
  %63 = load i32, ptr %7, align 4, !tbaa !118
  %64 = zext i32 %63 to i64
  %65 = tail call i64 @llvm.umin.i64(i64 %64, i64 2)
  br label %66

66:                                               ; preds = %68, %60
  %.0.idx.i.i = phi i64 [ %64, %60 ], [ %.0.add.i.i, %68 ]
  %67 = icmp sgt i64 %.0.idx.i.i, 2
  br i1 %67, label %68, label %rai_unixsocket_len.exit

68:                                               ; preds = %66
  %.0.add.i.i = add nsw i64 %.0.idx.i.i, -1
  %.ptr.i.i = getelementptr inbounds i8, ptr %62, i64 %.0.add.i.i
  %69 = load i8, ptr %.ptr.i.i, align 1, !tbaa !49
  %70 = icmp eq i8 %69, 0
  br i1 %70, label %66, label %rai_unixsocket_len.exit, !llvm.loop !93

rai_unixsocket_len.exit:                          ; preds = %66, %68
  %.0.idx.lcssa.i.i = phi i64 [ %65, %66 ], [ %.0.idx.i.i, %68 ]
  %gepdiff.i.i = add nsw i64 %.0.idx.lcssa.i.i, -2
  %71 = tail call i64 @rb_str_new(ptr noundef nonnull %61, i64 noundef %gepdiff.i.i) #21
  br label %81

72:                                               ; preds = %58
  call void @llvm.lifetime.start.p0(i64 1025, ptr nonnull %2) #21
  call void @llvm.lifetime.start.p0(i64 32, ptr nonnull %3) #21
  %73 = getelementptr inbounds nuw i8, ptr %4, i64 32
  %74 = load i32, ptr %7, align 4, !tbaa !118
  %75 = call i32 @rb_getnameinfo(ptr noundef nonnull %73, i32 noundef %74, ptr noundef nonnull %2, i64 noundef 1025, ptr noundef nonnull %3, i64 noundef 32, i32 noundef 3)
  %.not = icmp eq i32 %75, 0
  br i1 %.not, label %77, label %76

76:                                               ; preds = %72
  call void @rsock_raise_resolution_error(ptr noundef nonnull @.str.8, i32 noundef %75) #23
  unreachable

77:                                               ; preds = %72
  %78 = call i64 @rb_str_new_cstr(ptr noundef nonnull %2) #21
  %79 = call i64 @rb_str_new_cstr(ptr noundef nonnull %3) #21
  %80 = call i64 @rb_assoc_new(i64 noundef %78, i64 noundef %79) #21
  call void @llvm.lifetime.end.p0(i64 32, ptr nonnull %3) #21
  call void @llvm.lifetime.end.p0(i64 1025, ptr nonnull %2) #21
  br label %81

81:                                               ; preds = %77, %rai_unixsocket_len.exit
  %.0 = phi i64 [ %71, %rai_unixsocket_len.exit ], [ %80, %77 ]
  %82 = call i64 (i64, ...) @rb_ary_new_from_args(i64 noundef 7, i64 noundef %59, i64 noundef %.0, i64 noundef %22, i64 noundef %.039, i64 noundef %.040, i64 noundef %52, i64 noundef %53) #21
  ret i64 %82
}